; Function Attrs: mustprogress nounwind uwtable
define internal void @_ZZL14checkArraySizeRN5clang4SemaERPNS_4ExprERN4llvm6APSIntEjbEN12VLADiagnoser18diagnoseNotICETypeES1_NS_14SourceLocationENS_8QualTypeE(ptr dead_on_unwind noalias writable writeonly sret(%"class.clang::SemaBase::SemaDiagnosticBuilder") align 8 captures(none) initializes((0, 25), (80, 81), (88, 96)) %0, ptr nonnull readnone align 8 captures(none) %1, ptr noundef nonnull align 8 dereferenceable(17560) %2, i32 %3, i64 %4) unnamed_addr #0 align 2 {
  %6 = alloca %"class.clang::QualType", align 8
  %7 = alloca %"class.clang::SemaBase::SemaDiagnosticBuilder", align 8
  store i64 %4, ptr %6, align 8
  %8 = getelementptr inbounds nuw i8, ptr %2, i64 8
  call void @_ZN5clang8SemaBase4DiagENS_14SourceLocationEjb(ptr dead_on_unwind nonnull writable sret(%"class.clang::SemaBase::SemaDiagnosticBuilder") align 8 %7, ptr noundef nonnull align 8 dereferenceable(8) %8, i32 %3, i32 noundef 2796, i1 noundef zeroext false) #21
  %9 = call noundef nonnull align 8 dereferenceable(96) ptr @_ZN5clanglsINS_8QualTypeEEERKNS_8SemaBase21SemaDiagnosticBuilderES5_RKT_(ptr noundef nonnull align 8 dereferenceable(96) %7, ptr noundef nonnull align 8 dereferenceable(8) %6)
  call void @llvm.memcpy.p0.p0.i64(ptr noundef nonnull align 8 dereferenceable(96) %0, ptr noundef nonnull align 8 dereferenceable(96) %9, i64 25, i1 false)
  %10 = getelementptr inbounds nuw i8, ptr %9, i64 80
  %11 = getelementptr inbounds nuw i8, ptr %0, i64 80
  store i8 0, ptr %11, align 8
  %12 = load i8, ptr %10, align 8
  %13 = trunc i8 %12 to i1
  br i1 %13, label %14, label %_ZN5clang8SemaBase21SemaDiagnosticBuilderC2ERKS1_.exit

14:                                               ; preds = %5
  %15 = getelementptr inbounds nuw i8, ptr %0, i64 32
  %16 = getelementptr inbounds nuw i8, ptr %9, i64 32
  %17 = getelementptr inbounds nuw i8, ptr %0, i64 48
  %18 = getelementptr inbounds nuw i8, ptr %0, i64 56
  %19 = getelementptr inbounds nuw i8, ptr %0, i64 57
  %20 = getelementptr inbounds nuw i8, ptr %9, i64 48
  %21 = getelementptr inbounds nuw i8, ptr %0, i64 40
  store i64 0, ptr %21, align 8
  %22 = load ptr, ptr %20, align 8
  store ptr %22, ptr %17, align 8
  %23 = load ptr, ptr %16, align 8
  store ptr %23, ptr %15, align 8
  %24 = getelementptr inbounds nuw i8, ptr %9, i64 56
  %25 = load i8, ptr %24, align 8
  %26 = and i8 %25, 1
  store i8 %26, ptr %18, align 8
  %27 = getelementptr inbounds nuw i8, ptr %9, i64 57
  %28 = load i8, ptr %27, align 1
  %29 = and i8 %28, 1
  store i8 %29, ptr %19, align 1
  store ptr null, ptr %20, align 8
  store i8 0, ptr %24, align 8
  store i8 0, ptr %27, align 1
  %30 = getelementptr inbounds nuw i8, ptr %0, i64 64
  %31 = getelementptr inbounds nuw i8, ptr %9, i64 64
  call void @llvm.memcpy.p0.p0.i64(ptr noundef nonnull align 8 dereferenceable(12) %30, ptr noundef nonnull align 8 dereferenceable(12) %31, i64 12, i1 false)
  store i8 1, ptr %11, align 8
  br label %_ZN5clang8SemaBase21SemaDiagnosticBuilderC2ERKS1_.exit

_ZN5clang8SemaBase21SemaDiagnosticBuilderC2ERKS1_.exit: ; preds = %5, %14
  %32 = getelementptr inbounds nuw i8, ptr %0, i64 88
  %33 = getelementptr inbounds nuw i8, ptr %9, i64 88
  %34 = load i64, ptr %33, align 8
  store i64 %34, ptr %32, align 8
  call void @_ZN5clang8SemaBase21SemaDiagnosticBuilderD1Ev(ptr noundef nonnull align 8 dereferenceable(96) %7) #21
  ret void
}